target datalayout = "e-m:e-p270:32:32-p271:32:32-p272:64:64-i64:64-i128:128-f80:128-n8:16:32:64-S128"
target triple = "x86_64-pc-linux-gnu"

%struct.FAKE_RAND = type { ptr, i32, ptr, ptr }

@.str.17 = private unnamed_addr constant [6 x i8] c"state\00", align 1
@.str.18 = private unnamed_addr constant [9 x i8] c"strength\00", align 1
@.str.19 = private unnamed_addr constant [12 x i8] c"max_request\00", align 1

; Function Attrs: nounwind uwtable
define internal i32 @fake_rand_get_ctx_params(ptr noundef %0, ptr noundef %1) #0 {
  %3 = alloca i32, align 4
  %4 = alloca ptr, align 8
  %5 = alloca ptr, align 8
  %6 = alloca ptr, align 8
  %7 = alloca ptr, align 8
  %8 = alloca i32, align 4
  store ptr %0, ptr %4, align 8, !tbaa !16
  store ptr %1, ptr %5, align 8, !tbaa !36
  call void @llvm.lifetime.start.p0(i64 8, ptr %6) #4
  %9 = load ptr, ptr %4, align 8, !tbaa !16
  store ptr %9, ptr %6, align 8, !tbaa !16
  call void @llvm.lifetime.start.p0(i64 8, ptr %7) #4
  %10 = load ptr, ptr %5, align 8, !tbaa !36
  %11 = call ptr @OSSL_PARAM_locate(ptr noundef %10, ptr noundef @.str.17)
  store ptr %11, ptr %7, align 8, !tbaa !36
  %12 = load ptr, ptr %7, align 8, !tbaa !36
  %13 = icmp ne ptr %12, null
  br i1 %13, label %14, label %22

14:                                               ; preds = %2
  %15 = load ptr, ptr %7, align 8, !tbaa !36
  %16 = load ptr, ptr %6, align 8, !tbaa !16
  %17 = getelementptr inbounds nuw %struct.FAKE_RAND, ptr %16, i32 0, i32 1
  %18 = load i32, ptr %17, align 8, !tbaa !33
  %19 = call i32 @OSSL_PARAM_set_int(ptr noundef %15, i32 noundef %18)
  %20 = icmp ne i32 %19, 0
  br i1 %20, label %22, label %21

21:                                               ; preds = %14
  store i32 0, ptr %3, align 4
  store i32 1, ptr %8, align 4
  br label %43

22:                                               ; preds = %14, %2
  %23 = load ptr, ptr %5, align 8, !tbaa !36
  %24 = call ptr @OSSL_PARAM_locate(ptr noundef %23, ptr noundef @.str.18)
  store ptr %24, ptr %7, align 8, !tbaa !36
  %25 = load ptr, ptr %7, align 8, !tbaa !36
  %26 = icmp ne ptr %25, null
  br i1 %26, label %27, label %32

27:                                               ; preds = %22
  %28 = load ptr, ptr %7, align 8, !tbaa !36
  %29 = call i32 @OSSL_PARAM_set_int(ptr noundef %28, i32 noundef 256)
  %30 = icmp ne i32 %29, 0
  br i1 %30, label %32, label %31

31:                                               ; preds = %27
  store i32 0, ptr %3, align 4
  store i32 1, ptr %8, align 4
  br label %43

32:                                               ; preds = %27, %22
  %33 = load ptr, ptr %5, align 8, !tbaa !36
  %34 = call ptr @OSSL_PARAM_locate(ptr noundef %33, ptr noundef @.str.19)
  store ptr %34, ptr %7, align 8, !tbaa !36
  %35 = load ptr, ptr %7, align 8, !tbaa !36
  %36 = icmp ne ptr %35, null
  br i1 %36, label %37, label %42

37:                                               ; preds = %32
  %38 = load ptr, ptr %7, align 8, !tbaa !36
  %39 = call i32 @OSSL_PARAM_set_size_t(ptr noundef %38, i64 noundef 2147483647)
  %40 = icmp ne i32 %39, 0
  br i1 %40, label %42, label %41

41:                                               ; preds = %37
  store i32 0, ptr %3, align 4
  store i32 1, ptr %8, align 4
  br label %43

42:                                               ; preds = %37, %32
  store i32 1, ptr %3, align 4
  store i32 1, ptr %8, align 4
  br label %43

43:                                               ; preds = %42, %41, %31, %21
  call void @llvm.lifetime.end.p0(i64 8, ptr %7) #4
  call void @llvm.lifetime.end.p0(i64 8, ptr %6) #4
  %44 = load i32, ptr %3, align 4
  ret i32 %44
}